target datalayout = "e-m:e-p270:32:32-p271:32:32-p272:64:64-i64:64-i128:128-f80:128-n8:16:32:64-S128"
target triple = "x86_64-pc-linux-gnu"

%"struct.OpenColorIO_v2_5dev::GradingRGBM" = type { double, double, double, double }
%"struct.OpenColorIO_v2_5dev::GradingPrimary" = type { %"struct.OpenColorIO_v2_5dev::GradingRGBM", %"struct.OpenColorIO_v2_5dev::GradingRGBM", %"struct.OpenColorIO_v2_5dev::GradingRGBM", %"struct.OpenColorIO_v2_5dev::GradingRGBM", %"struct.OpenColorIO_v2_5dev::GradingRGBM", %"struct.OpenColorIO_v2_5dev::GradingRGBM", %"struct.OpenColorIO_v2_5dev::GradingRGBM", double, double, double, double, double, double }

; Function Attrs: mustprogress nounwind uwtable
define noundef zeroext i1 @_ZN19OpenColorIO_v2_5deveqERKNS_11GradingRGBMES2_(ptr noundef nonnull align 8 dereferenceable(32) %0, ptr noundef nonnull align 8 dereferenceable(32) %1) #0 {
  %3 = alloca ptr, align 8
  %4 = alloca ptr, align 8
  store ptr %0, ptr %3, align 8, !tbaa !3
  store ptr %1, ptr %4, align 8, !tbaa !3
  %5 = load ptr, ptr %3, align 8, !tbaa !3
  %6 = getelementptr inbounds nuw %"struct.OpenColorIO_v2_5dev::GradingRGBM", ptr %5, i32 0, i32 0
  %7 = load double, ptr %6, align 8, !tbaa !8
  %8 = load ptr, ptr %4, align 8, !tbaa !3
  %9 = getelementptr inbounds nuw %"struct.OpenColorIO_v2_5dev::GradingRGBM", ptr %8, i32 0, i32 0
  %10 = load double, ptr %9, align 8, !tbaa !8
  %11 = fcmp oeq double %7, %10
  br i1 %11, label %12, label %36

12:                                               ; preds = %2
  %13 = load ptr, ptr %3, align 8, !tbaa !3
  %14 = getelementptr inbounds nuw %"struct.OpenColorIO_v2_5dev::GradingRGBM", ptr %13, i32 0, i32 1
  %15 = load double, ptr %14, align 8, !tbaa !11
  %16 = load ptr, ptr %4, align 8, !tbaa !3
  %17 = getelementptr inbounds nuw %"struct.OpenColorIO_v2_5dev::GradingRGBM", ptr %16, i32 0, i32 1
  %18 = load double, ptr %17, align 8, !tbaa !11
  %19 = fcmp oeq double %15, %18
  br i1 %19, label %20, label %36

20:                                               ; preds = %12
  %21 = load ptr, ptr %3, align 8, !tbaa !3
  %22 = getelementptr inbounds nuw %"struct.OpenColorIO_v2_5dev::GradingRGBM", ptr %21, i32 0, i32 2
  %23 = load double, ptr %22, align 8, !tbaa !12
  %24 = load ptr, ptr %4, align 8, !tbaa !3
  %25 = getelementptr inbounds nuw %"struct.OpenColorIO_v2_5dev::GradingRGBM", ptr %24, i32 0, i32 2
  %26 = load double, ptr %25, align 8, !tbaa !12
  %27 = fcmp oeq double %23, %26
  br i1 %27, label %28, label %36

28:                                               ; preds = %20
  %29 = load ptr, ptr %3, align 8, !tbaa !3
  %30 = getelementptr inbounds nuw %"struct.OpenColorIO_v2_5dev::GradingRGBM", ptr %29, i32 0, i32 3
  %31 = load double, ptr %30, align 8, !tbaa !13
  %32 = load ptr, ptr %4, align 8, !tbaa !3
  %33 = getelementptr inbounds nuw %"struct.OpenColorIO_v2_5dev::GradingRGBM", ptr %32, i32 0, i32 3
  %34 = load double, ptr %33, align 8, !tbaa !13
  %35 = fcmp oeq double %31, %34
  br label %36

36:                                               ; preds = %28, %20, %12, %2
  %37 = phi i1 [ false, %20 ], [ false, %12 ], [ false, %2 ], [ %35, %28 ]
  ret i1 %37
}

; Function Attrs: mustprogress nounwind uwtable
define noundef zeroext i1 @_ZN19OpenColorIO_v2_5deveqERKNS_14GradingPrimaryES2_(ptr noundef nonnull align 8 dereferenceable(272) %0, ptr noundef nonnull align 8 dereferenceable(272) %1) #0 {
  %3 = alloca ptr, align 8
  %4 = alloca ptr, align 8
  store ptr %0, ptr %3, align 8, !tbaa !14
  store ptr %1, ptr %4, align 8, !tbaa !14
  %5 = load ptr, ptr %3, align 8, !tbaa !14
  %6 = getelementptr inbounds nuw %"struct.OpenColorIO_v2_5dev::GradingPrimary", ptr %5, i32 0, i32 0
  %7 = load ptr, ptr %4, align 8, !tbaa !14
  %8 = getelementptr inbounds nuw %"struct.OpenColorIO_v2_5dev::GradingPrimary", ptr %7, i32 0, i32 0
  %9 = call noundef zeroext i1 @_ZN19OpenColorIO_v2_5deveqERKNS_11GradingRGBMES2_(ptr noundef nonnull align 8 dereferenceable(32) %6, ptr noundef nonnull align 8 dereferenceable(32) %8)
  br i1 %9, label %10, label %94

10:                                               ; preds = %2
  %11 = load ptr, ptr %3, align 8, !tbaa !14
  %12 = getelementptr inbounds nuw %"struct.OpenColorIO_v2_5dev::GradingPrimary", ptr %11, i32 0, i32 1
  %13 = load ptr, ptr %4, align 8, !tbaa !14
  %14 = getelementptr inbounds nuw %"struct.OpenColorIO_v2_5dev::GradingPrimary", ptr %13, i32 0, i32 1
  %15 = call noundef zeroext i1 @_ZN19OpenColorIO_v2_5deveqERKNS_11GradingRGBMES2_(ptr noundef nonnull align 8 dereferenceable(32) %12, ptr noundef nonnull align 8 dereferenceable(32) %14)
  br i1 %15, label %16, label %94

16:                                               ; preds = %10
  %17 = load ptr, ptr %3, align 8, !tbaa !14
  %18 = getelementptr inbounds nuw %"struct.OpenColorIO_v2_5dev::GradingPrimary", ptr %17, i32 0, i32 2
  %19 = load ptr, ptr %4, align 8, !tbaa !14
  %20 = getelementptr inbounds nuw %"struct.OpenColorIO_v2_5dev::GradingPrimary", ptr %19, i32 0, i32 2
  %21 = call noundef zeroext i1 @_ZN19OpenColorIO_v2_5deveqERKNS_11GradingRGBMES2_(ptr noundef nonnull align 8 dereferenceable(32) %18, ptr noundef nonnull align 8 dereferenceable(32) %20)
  br i1 %21, label %22, label %94

22:                                               ; preds = %16
  %23 = load ptr, ptr %3, align 8, !tbaa !14
  %24 = getelementptr inbounds nuw %"struct.OpenColorIO_v2_5dev::GradingPrimary", ptr %23, i32 0, i32 3
  %25 = load ptr, ptr %4, align 8, !tbaa !14
  %26 = getelementptr inbounds nuw %"struct.OpenColorIO_v2_5dev::GradingPrimary", ptr %25, i32 0, i32 3
  %27 = call noundef zeroext i1 @_ZN19OpenColorIO_v2_5deveqERKNS_11GradingRGBMES2_(ptr noundef nonnull align 8 dereferenceable(32) %24, ptr noundef nonnull align 8 dereferenceable(32) %26)
  br i1 %27, label %28, label %94

28:                                               ; preds = %22
  %29 = load ptr, ptr %3, align 8, !tbaa !14
  %30 = getelementptr inbounds nuw %"struct.OpenColorIO_v2_5dev::GradingPrimary", ptr %29, i32 0, i32 4
  %31 = load ptr, ptr %4, align 8, !tbaa !14
  %32 = getelementptr inbounds nuw %"struct.OpenColorIO_v2_5dev::GradingPrimary", ptr %31, i32 0, i32 4
  %33 = call noundef zeroext i1 @_ZN19OpenColorIO_v2_5deveqERKNS_11GradingRGBMES2_(ptr noundef nonnull align 8 dereferenceable(32) %30, ptr noundef nonnull align 8 dereferenceable(32) %32)
  br i1 %33, label %34, label %94

34:                                               ; preds = %28
  %35 = load ptr, ptr %3, align 8, !tbaa !14
  %36 = getelementptr inbounds nuw %"struct.OpenColorIO_v2_5dev::GradingPrimary", ptr %35, i32 0, i32 5
  %37 = load ptr, ptr %4, align 8, !tbaa !14
  %38 = getelementptr inbounds nuw %"struct.OpenColorIO_v2_5dev::GradingPrimary", ptr %37, i32 0, i32 5
  %39 = call noundef zeroext i1 @_ZN19OpenColorIO_v2_5deveqERKNS_11GradingRGBMES2_(ptr noundef nonnull align 8 dereferenceable(32) %36, ptr noundef nonnull align 8 dereferenceable(32) %38)
  br i1 %39, label %40, label %94

40:                                               ; preds = %34
  %41 = load ptr, ptr %3, align 8, !tbaa !14
  %42 = getelementptr inbounds nuw %"struct.OpenColorIO_v2_5dev::GradingPrimary", ptr %41, i32 0, i32 6
  %43 = load ptr, ptr %4, align 8, !tbaa !14
  %44 = getelementptr inbounds nuw %"struct.OpenColorIO_v2_5dev::GradingPrimary", ptr %43, i32 0, i32 6
  %45 = call noundef zeroext i1 @_ZN19OpenColorIO_v2_5deveqERKNS_11GradingRGBMES2_(ptr noundef nonnull align 8 dereferenceable(32) %42, ptr noundef nonnull align 8 dereferenceable(32) %44)
  br i1 %45, label %46, label %94

46:                                               ; preds = %40
  %47 = load ptr, ptr %3, align 8, !tbaa !14
  %48 = getelementptr inbounds nuw %"struct.OpenColorIO_v2_5dev::GradingPrimary", ptr %47, i32 0, i32 8
  %49 = load double, ptr %48, align 8, !tbaa !16
  %50 = load ptr, ptr %4, align 8, !tbaa !14
  %51 = getelementptr inbounds nuw %"struct.OpenColorIO_v2_5dev::GradingPrimary", ptr %50, i32 0, i32 8
  %52 = load double, ptr %51, align 8, !tbaa !16
  %53 = fcmp oeq double %49, %52
  br i1 %53, label %54, label %94

54:                                               ; preds = %46
  %55 = load ptr, ptr %3, align 8, !tbaa !14
  %56 = getelementptr inbounds nuw %"struct.OpenColorIO_v2_5dev::GradingPrimary", ptr %55, i32 0, i32 7
  %57 = load double, ptr %56, align 8, !tbaa !18
  %58 = load ptr, ptr %4, align 8, !tbaa !14
  %59 = getelementptr inbounds nuw %"struct.OpenColorIO_v2_5dev::GradingPrimary", ptr %58, i32 0, i32 7
  %60 = load double, ptr %59, align 8, !tbaa !18
  %61 = fcmp oeq double %57, %60
  br i1 %61, label %62, label %94

62:                                               ; preds = %54
  %63 = load ptr, ptr %3, align 8, !tbaa !14
  %64 = getelementptr inbounds nuw %"struct.OpenColorIO_v2_5dev::GradingPrimary", ptr %63, i32 0, i32 12
  %65 = load double, ptr %64, align 8, !tbaa !19
  %66 = load ptr, ptr %4, align 8, !tbaa !14
  %67 = getelementptr inbounds nuw %"struct.OpenColorIO_v2_5dev::GradingPrimary", ptr %66, i32 0, i32 12
  %68 = load double, ptr %67, align 8, !tbaa !19
  %69 = fcmp oeq double %65, %68
  br i1 %69, label %70, label %94

70:                                               ; preds = %62
  %71 = load ptr, ptr %3, align 8, !tbaa !14
  %72 = getelementptr inbounds nuw %"struct.OpenColorIO_v2_5dev::GradingPrimary", ptr %71, i32 0, i32 11
  %73 = load double, ptr %72, align 8, !tbaa !20
  %74 = load ptr, ptr %4, align 8, !tbaa !14
  %75 = getelementptr inbounds nuw %"struct.OpenColorIO_v2_5dev::GradingPrimary", ptr %74, i32 0, i32 11
  %76 = load double, ptr %75, align 8, !tbaa !20
  %77 = fcmp oeq double %73, %76
  br i1 %77, label %78, label %94

78:                                               ; preds = %70
  %79 = load ptr, ptr %3, align 8, !tbaa !14
  %80 = getelementptr inbounds nuw %"struct.OpenColorIO_v2_5dev::GradingPrimary", ptr %79, i32 0, i32 10
  %81 = load double, ptr %80, align 8, !tbaa !21
  %82 = load ptr, ptr %4, align 8, !tbaa !14
  %83 = getelementptr inbounds nuw %"struct.OpenColorIO_v2_5dev::GradingPrimary", ptr %82, i32 0, i32 10
  %84 = load double, ptr %83, align 8, !tbaa !21
  %85 = fcmp oeq double %81, %84
  br i1 %85, label %86, label %94

86:                                               ; preds = %78
  %87 = load ptr, ptr %3, align 8, !tbaa !14
  %88 = getelementptr inbounds nuw %"struct.OpenColorIO_v2_5dev::GradingPrimary", ptr %87, i32 0, i32 9
  %89 = load double, ptr %88, align 8, !tbaa !22
  %90 = load ptr, ptr %4, align 8, !tbaa !14
  %91 = getelementptr inbounds nuw %"struct.OpenColorIO_v2_5dev::GradingPrimary", ptr %90, i32 0, i32 9
  %92 = load double, ptr %91, align 8, !tbaa !22
  %93 = fcmp oeq double %89, %92
  br label %94

94:                                               ; preds = %86, %78, %70, %62, %54, %46, %40, %34, %28, %22, %16, %10, %2
  %95 = phi i1 [ false, %78 ], [ false, %70 ], [ false, %62 ], [ false, %54 ], [ false, %46 ], [ false, %40 ], [ false, %34 ], [ false, %28 ], [ false, %22 ], [ false, %16 ], [ false, %10 ], [ false, %2 ], [ %93, %86 ]
  ret i1 %95
}