; Function Attrs: mustprogress nofree norecurse nosync nounwind willreturn memory(argmem: read) uwtable
define noundef zeroext i1 @_ZN19OpenColorIO_v2_5deveqERKNS_14GradingPrimaryES2_(ptr noundef nonnull readonly align 8 captures(none) dereferenceable(272) %0, ptr noundef nonnull readonly align 8 captures(none) dereferenceable(272) %1) local_unnamed_addr #0 {
  %3 = load double, ptr %0, align 8, !tbaa !3
  %4 = load double, ptr %1, align 8, !tbaa !3
  %5 = fcmp oeq double %3, %4
  br i1 %5, label %6, label %_ZN19OpenColorIO_v2_5deveqERKNS_11GradingRGBMES2_.exit.thread

6:                                                ; preds = %2
  %7 = getelementptr inbounds nuw i8, ptr %0, i64 8
  %8 = load double, ptr %7, align 8, !tbaa !8
  %9 = getelementptr inbounds nuw i8, ptr %1, i64 8
  %10 = load double, ptr %9, align 8, !tbaa !8
  %11 = fcmp oeq double %8, %10
  br i1 %11, label %12, label %_ZN19OpenColorIO_v2_5deveqERKNS_11GradingRGBMES2_.exit.thread

12:                                               ; preds = %6
  %13 = getelementptr inbounds nuw i8, ptr %0, i64 16
  %14 = load double, ptr %13, align 8, !tbaa !9
  %15 = getelementptr inbounds nuw i8, ptr %1, i64 16
  %16 = load double, ptr %15, align 8, !tbaa !9
  %17 = fcmp oeq double %14, %16
  br i1 %17, label %_ZN19OpenColorIO_v2_5deveqERKNS_11GradingRGBMES2_.exit, label %_ZN19OpenColorIO_v2_5deveqERKNS_11GradingRGBMES2_.exit.thread

_ZN19OpenColorIO_v2_5deveqERKNS_11GradingRGBMES2_.exit: ; preds = %12
  %18 = getelementptr inbounds nuw i8, ptr %0, i64 24
  %19 = load double, ptr %18, align 8, !tbaa !10
  %20 = getelementptr inbounds nuw i8, ptr %1, i64 24
  %21 = load double, ptr %20, align 8, !tbaa !10
  %22 = fcmp oeq double %19, %21
  br i1 %22, label %23, label %_ZN19OpenColorIO_v2_5deveqERKNS_11GradingRGBMES2_.exit.thread

23:                                               ; preds = %_ZN19OpenColorIO_v2_5deveqERKNS_11GradingRGBMES2_.exit
  %24 = getelementptr inbounds nuw i8, ptr %0, i64 32
  %25 = getelementptr inbounds nuw i8, ptr %1, i64 32
  %26 = load double, ptr %24, align 8, !tbaa !3
  %27 = load double, ptr %25, align 8, !tbaa !3
  %28 = fcmp oeq double %26, %27
  br i1 %28, label %29, label %_ZN19OpenColorIO_v2_5deveqERKNS_11GradingRGBMES2_.exit.thread

29:                                               ; preds = %23
  %30 = getelementptr inbounds nuw i8, ptr %0, i64 40
  %31 = load double, ptr %30, align 8, !tbaa !8
  %32 = getelementptr inbounds nuw i8, ptr %1, i64 40
  %33 = load double, ptr %32, align 8, !tbaa !8
  %34 = fcmp oeq double %31, %33
  br i1 %34, label %35, label %_ZN19OpenColorIO_v2_5deveqERKNS_11GradingRGBMES2_.exit.thread

35:                                               ; preds = %29
  %36 = getelementptr inbounds nuw i8, ptr %0, i64 48
  %37 = load double, ptr %36, align 8, !tbaa !9
  %38 = getelementptr inbounds nuw i8, ptr %1, i64 48
  %39 = load double, ptr %38, align 8, !tbaa !9
  %40 = fcmp oeq double %37, %39
  br i1 %40, label %_ZN19OpenColorIO_v2_5deveqERKNS_11GradingRGBMES2_.exit26, label %_ZN19OpenColorIO_v2_5deveqERKNS_11GradingRGBMES2_.exit.thread

_ZN19OpenColorIO_v2_5deveqERKNS_11GradingRGBMES2_.exit26: ; preds = %35
  %41 = getelementptr inbounds nuw i8, ptr %0, i64 56
  %42 = load double, ptr %41, align 8, !tbaa !10
  %43 = getelementptr inbounds nuw i8, ptr %1, i64 56
  %44 = load double, ptr %43, align 8, !tbaa !10
  %45 = fcmp oeq double %42, %44
  br i1 %45, label %46, label %_ZN19OpenColorIO_v2_5deveqERKNS_11GradingRGBMES2_.exit.thread

46:                                               ; preds = %_ZN19OpenColorIO_v2_5deveqERKNS_11GradingRGBMES2_.exit26
  %47 = getelementptr inbounds nuw i8, ptr %0, i64 64
  %48 = getelementptr inbounds nuw i8, ptr %1, i64 64
  %49 = load double, ptr %47, align 8, !tbaa !3
  %50 = load double, ptr %48, align 8, !tbaa !3
  %51 = fcmp oeq double %49, %50
  br i1 %51, label %52, label %_ZN19OpenColorIO_v2_5deveqERKNS_11GradingRGBMES2_.exit.thread

52:                                               ; preds = %46
  %53 = getelementptr inbounds nuw i8, ptr %0, i64 72
  %54 = load double, ptr %53, align 8, !tbaa !8
  %55 = getelementptr inbounds nuw i8, ptr %1, i64 72
  %56 = load double, ptr %55, align 8, !tbaa !8
  %57 = fcmp oeq double %54, %56
  br i1 %57, label %58, label %_ZN19OpenColorIO_v2_5deveqERKNS_11GradingRGBMES2_.exit.thread

58:                                               ; preds = %52
  %59 = getelementptr inbounds nuw i8, ptr %0, i64 80
  %60 = load double, ptr %59, align 8, !tbaa !9
  %61 = getelementptr inbounds nuw i8, ptr %1, i64 80
  %62 = load double, ptr %61, align 8, !tbaa !9
  %63 = fcmp oeq double %60, %62
  br i1 %63, label %_ZN19OpenColorIO_v2_5deveqERKNS_11GradingRGBMES2_.exit27, label %_ZN19OpenColorIO_v2_5deveqERKNS_11GradingRGBMES2_.exit.thread

_ZN19OpenColorIO_v2_5deveqERKNS_11GradingRGBMES2_.exit27: ; preds = %58
  %64 = getelementptr inbounds nuw i8, ptr %0, i64 88
  %65 = load double, ptr %64, align 8, !tbaa !10
  %66 = getelementptr inbounds nuw i8, ptr %1, i64 88
  %67 = load double, ptr %66, align 8, !tbaa !10
  %68 = fcmp oeq double %65, %67
  br i1 %68, label %69, label %_ZN19OpenColorIO_v2_5deveqERKNS_11GradingRGBMES2_.exit.thread

69:                                               ; preds = %_ZN19OpenColorIO_v2_5deveqERKNS_11GradingRGBMES2_.exit27
  %70 = getelementptr inbounds nuw i8, ptr %0, i64 96
  %71 = getelementptr inbounds nuw i8, ptr %1, i64 96
  %72 = load double, ptr %70, align 8, !tbaa !3
  %73 = load double, ptr %71, align 8, !tbaa !3
  %74 = fcmp oeq double %72, %73
  br i1 %74, label %75, label %_ZN19OpenColorIO_v2_5deveqERKNS_11GradingRGBMES2_.exit.thread

75:                                               ; preds = %69
  %76 = getelementptr inbounds nuw i8, ptr %0, i64 104
  %77 = load double, ptr %76, align 8, !tbaa !8
  %78 = getelementptr inbounds nuw i8, ptr %1, i64 104
  %79 = load double, ptr %78, align 8, !tbaa !8
  %80 = fcmp oeq double %77, %79
  br i1 %80, label %81, label %_ZN19OpenColorIO_v2_5deveqERKNS_11GradingRGBMES2_.exit.thread

81:                                               ; preds = %75
  %82 = getelementptr inbounds nuw i8, ptr %0, i64 112
  %83 = load double, ptr %82, align 8, !tbaa !9
  %84 = getelementptr inbounds nuw i8, ptr %1, i64 112
  %85 = load double, ptr %84, align 8, !tbaa !9
  %86 = fcmp oeq double %83, %85
  br i1 %86, label %_ZN19OpenColorIO_v2_5deveqERKNS_11GradingRGBMES2_.exit28, label %_ZN19OpenColorIO_v2_5deveqERKNS_11GradingRGBMES2_.exit.thread

_ZN19OpenColorIO_v2_5deveqERKNS_11GradingRGBMES2_.exit28: ; preds = %81
  %87 = getelementptr inbounds nuw i8, ptr %0, i64 120
  %88 = load double, ptr %87, align 8, !tbaa !10
  %89 = getelementptr inbounds nuw i8, ptr %1, i64 120
  %90 = load double, ptr %89, align 8, !tbaa !10
  %91 = fcmp oeq double %88, %90
  br i1 %91, label %92, label %_ZN19OpenColorIO_v2_5deveqERKNS_11GradingRGBMES2_.exit.thread

92:                                               ; preds = %_ZN19OpenColorIO_v2_5deveqERKNS_11GradingRGBMES2_.exit28
  %93 = getelementptr inbounds nuw i8, ptr %0, i64 128
  %94 = getelementptr inbounds nuw i8, ptr %1, i64 128
  %95 = load double, ptr %93, align 8, !tbaa !3
  %96 = load double, ptr %94, align 8, !tbaa !3
  %97 = fcmp oeq double %95, %96
  br i1 %97, label %98, label %_ZN19OpenColorIO_v2_5deveqERKNS_11GradingRGBMES2_.exit.thread

98:                                               ; preds = %92
  %99 = getelementptr inbounds nuw i8, ptr %0, i64 136
  %100 = load double, ptr %99, align 8, !tbaa !8
  %101 = getelementptr inbounds nuw i8, ptr %1, i64 136
  %102 = load double, ptr %101, align 8, !tbaa !8
  %103 = fcmp oeq double %100, %102
  br i1 %103, label %104, label %_ZN19OpenColorIO_v2_5deveqERKNS_11GradingRGBMES2_.exit.thread

104:                                              ; preds = %98
  %105 = getelementptr inbounds nuw i8, ptr %0, i64 144
  %106 = load double, ptr %105, align 8, !tbaa !9
  %107 = getelementptr inbounds nuw i8, ptr %1, i64 144
  %108 = load double, ptr %107, align 8, !tbaa !9
  %109 = fcmp oeq double %106, %108
  br i1 %109, label %_ZN19OpenColorIO_v2_5deveqERKNS_11GradingRGBMES2_.exit29, label %_ZN19OpenColorIO_v2_5deveqERKNS_11GradingRGBMES2_.exit.thread

_ZN19OpenColorIO_v2_5deveqERKNS_11GradingRGBMES2_.exit29: ; preds = %104
  %110 = getelementptr inbounds nuw i8, ptr %0, i64 152
  %111 = load double, ptr %110, align 8, !tbaa !10
  %112 = getelementptr inbounds nuw i8, ptr %1, i64 152
  %113 = load double, ptr %112, align 8, !tbaa !10
  %114 = fcmp oeq double %111, %113
  br i1 %114, label %115, label %_ZN19OpenColorIO_v2_5deveqERKNS_11GradingRGBMES2_.exit.thread

115:                                              ; preds = %_ZN19OpenColorIO_v2_5deveqERKNS_11GradingRGBMES2_.exit29
  %116 = getelementptr inbounds nuw i8, ptr %0, i64 160
  %117 = getelementptr inbounds nuw i8, ptr %1, i64 160
  %118 = load double, ptr %116, align 8, !tbaa !3
  %119 = load double, ptr %117, align 8, !tbaa !3
  %120 = fcmp oeq double %118, %119
  br i1 %120, label %121, label %_ZN19OpenColorIO_v2_5deveqERKNS_11GradingRGBMES2_.exit.thread

121:                                              ; preds = %115
  %122 = getelementptr inbounds nuw i8, ptr %0, i64 168
  %123 = load double, ptr %122, align 8, !tbaa !8
  %124 = getelementptr inbounds nuw i8, ptr %1, i64 168
  %125 = load double, ptr %124, align 8, !tbaa !8
  %126 = fcmp oeq double %123, %125
  br i1 %126, label %127, label %_ZN19OpenColorIO_v2_5deveqERKNS_11GradingRGBMES2_.exit.thread

127:                                              ; preds = %121
  %128 = getelementptr inbounds nuw i8, ptr %0, i64 176
  %129 = load double, ptr %128, align 8, !tbaa !9
  %130 = getelementptr inbounds nuw i8, ptr %1, i64 176
  %131 = load double, ptr %130, align 8, !tbaa !9
  %132 = fcmp oeq double %129, %131
  br i1 %132, label %_ZN19OpenColorIO_v2_5deveqERKNS_11GradingRGBMES2_.exit30, label %_ZN19OpenColorIO_v2_5deveqERKNS_11GradingRGBMES2_.exit.thread

_ZN19OpenColorIO_v2_5deveqERKNS_11GradingRGBMES2_.exit30: ; preds = %127
  %133 = getelementptr inbounds nuw i8, ptr %0, i64 184
  %134 = load double, ptr %133, align 8, !tbaa !10
  %135 = getelementptr inbounds nuw i8, ptr %1, i64 184
  %136 = load double, ptr %135, align 8, !tbaa !10
  %137 = fcmp oeq double %134, %136
  br i1 %137, label %138, label %_ZN19OpenColorIO_v2_5deveqERKNS_11GradingRGBMES2_.exit.thread

138:                                              ; preds = %_ZN19OpenColorIO_v2_5deveqERKNS_11GradingRGBMES2_.exit30
  %139 = getelementptr inbounds nuw i8, ptr %0, i64 192
  %140 = getelementptr inbounds nuw i8, ptr %1, i64 192
  %141 = load double, ptr %139, align 8, !tbaa !3
  %142 = load double, ptr %140, align 8, !tbaa !3
  %143 = fcmp oeq double %141, %142
  br i1 %143, label %144, label %_ZN19OpenColorIO_v2_5deveqERKNS_11GradingRGBMES2_.exit.thread

144:                                              ; preds = %138
  %145 = getelementptr inbounds nuw i8, ptr %0, i64 200
  %146 = load double, ptr %145, align 8, !tbaa !8
  %147 = getelementptr inbounds nuw i8, ptr %1, i64 200
  %148 = load double, ptr %147, align 8, !tbaa !8
  %149 = fcmp oeq double %146, %148
  br i1 %149, label %150, label %_ZN19OpenColorIO_v2_5deveqERKNS_11GradingRGBMES2_.exit.thread

150:                                              ; preds = %144
  %151 = getelementptr inbounds nuw i8, ptr %0, i64 208
  %152 = load double, ptr %151, align 8, !tbaa !9
  %153 = getelementptr inbounds nuw i8, ptr %1, i64 208
  %154 = load double, ptr %153, align 8, !tbaa !9
  %155 = fcmp oeq double %152, %154
  br i1 %155, label %_ZN19OpenColorIO_v2_5deveqERKNS_11GradingRGBMES2_.exit31, label %_ZN19OpenColorIO_v2_5deveqERKNS_11GradingRGBMES2_.exit.thread

_ZN19OpenColorIO_v2_5deveqERKNS_11GradingRGBMES2_.exit31: ; preds = %150
  %156 = getelementptr inbounds nuw i8, ptr %0, i64 216
  %157 = load double, ptr %156, align 8, !tbaa !10
  %158 = getelementptr inbounds nuw i8, ptr %1, i64 216
  %159 = load double, ptr %158, align 8, !tbaa !10
  %160 = fcmp oeq double %157, %159
  br i1 %160, label %161, label %_ZN19OpenColorIO_v2_5deveqERKNS_11GradingRGBMES2_.exit.thread

161:                                              ; preds = %_ZN19OpenColorIO_v2_5deveqERKNS_11GradingRGBMES2_.exit31
  %162 = getelementptr inbounds nuw i8, ptr %0, i64 232
  %163 = load double, ptr %162, align 8, !tbaa !11
  %164 = getelementptr inbounds nuw i8, ptr %1, i64 232
  %165 = load double, ptr %164, align 8, !tbaa !11
  %166 = fcmp oeq double %163, %165
  br i1 %166, label %167, label %_ZN19OpenColorIO_v2_5deveqERKNS_11GradingRGBMES2_.exit.thread

167:                                              ; preds = %161
  %168 = getelementptr inbounds nuw i8, ptr %0, i64 224
  %169 = load double, ptr %168, align 8, !tbaa !13
  %170 = getelementptr inbounds nuw i8, ptr %1, i64 224
  %171 = load double, ptr %170, align 8, !tbaa !13
  %172 = fcmp oeq double %169, %171
  br i1 %172, label %173, label %_ZN19OpenColorIO_v2_5deveqERKNS_11GradingRGBMES2_.exit.thread

173:                                              ; preds = %167
  %174 = getelementptr inbounds nuw i8, ptr %0, i64 264
  %175 = load double, ptr %174, align 8, !tbaa !14
  %176 = getelementptr inbounds nuw i8, ptr %1, i64 264
  %177 = load double, ptr %176, align 8, !tbaa !14
  %178 = fcmp oeq double %175, %177
  br i1 %178, label %179, label %_ZN19OpenColorIO_v2_5deveqERKNS_11GradingRGBMES2_.exit.thread

179:                                              ; preds = %173
  %180 = getelementptr inbounds nuw i8, ptr %0, i64 256
  %181 = load double, ptr %180, align 8, !tbaa !15
  %182 = getelementptr inbounds nuw i8, ptr %1, i64 256
  %183 = load double, ptr %182, align 8, !tbaa !15
  %184 = fcmp oeq double %181, %183
  br i1 %184, label %185, label %_ZN19OpenColorIO_v2_5deveqERKNS_11GradingRGBMES2_.exit.thread

185:                                              ; preds = %179
  %186 = getelementptr inbounds nuw i8, ptr %0, i64 248
  %187 = load double, ptr %186, align 8, !tbaa !16
  %188 = getelementptr inbounds nuw i8, ptr %1, i64 248
  %189 = load double, ptr %188, align 8, !tbaa !16
  %190 = fcmp oeq double %187, %189
  br i1 %190, label %191, label %_ZN19OpenColorIO_v2_5deveqERKNS_11GradingRGBMES2_.exit.thread

191:                                              ; preds = %185
  %192 = getelementptr inbounds nuw i8, ptr %0, i64 240
  %193 = load double, ptr %192, align 8, !tbaa !17
  %194 = getelementptr inbounds nuw i8, ptr %1, i64 240
  %195 = load double, ptr %194, align 8, !tbaa !17
  %196 = fcmp oeq double %193, %195
  br label %_ZN19OpenColorIO_v2_5deveqERKNS_11GradingRGBMES2_.exit.thread

_ZN19OpenColorIO_v2_5deveqERKNS_11GradingRGBMES2_.exit.thread: ; preds = %138, %144, %150, %115, %121, %127, %92, %98, %104, %69, %75, %81, %46, %52, %58, %23, %29, %35, %2, %6, %12, %191, %185, %179, %173, %167, %161, %_ZN19OpenColorIO_v2_5deveqERKNS_11GradingRGBMES2_.exit31, %_ZN19OpenColorIO_v2_5deveqERKNS_11GradingRGBMES2_.exit30, %_ZN19OpenColorIO_v2_5deveqERKNS_11GradingRGBMES2_.exit29, %_ZN19OpenColorIO_v2_5deveqERKNS_11GradingRGBMES2_.exit28, %_ZN19OpenColorIO_v2_5deveqERKNS_11GradingRGBMES2_.exit27, %_ZN19OpenColorIO_v2_5deveqERKNS_11GradingRGBMES2_.exit26, %_ZN19OpenColorIO_v2_5deveqERKNS_11GradingRGBMES2_.exit
  %197 = phi i1 [ false, %185 ], [ false, %179 ], [ false, %173 ], [ false, %167 ], [ false, %161 ], [ false, %_ZN19OpenColorIO_v2_5deveqERKNS_11GradingRGBMES2_.exit31 ], [ false, %_ZN19OpenColorIO_v2_5deveqERKNS_11GradingRGBMES2_.exit30 ], [ false, %_ZN19OpenColorIO_v2_5deveqERKNS_11GradingRGBMES2_.exit29 ], [ false, %_ZN19OpenColorIO_v2_5deveqERKNS_11GradingRGBMES2_.exit28 ], [ false, %_ZN19OpenColorIO_v2_5deveqERKNS_11GradingRGBMES2_.exit27 ], [ false, %_ZN19OpenColorIO_v2_5deveqERKNS_11GradingRGBMES2_.exit26 ], [ false, %_ZN19OpenColorIO_v2_5deveqERKNS_11GradingRGBMES2_.exit ], [ %196, %191 ], [ false, %12 ], [ false, %6 ], [ false, %2 ], [ false, %35 ], [ false, %29 ], [ false, %23 ], [ false, %58 ], [ false, %52 ], [ false, %46 ], [ false, %81 ], [ false, %75 ], [ false, %69 ], [ false, %104 ], [ false, %98 ], [ false, %92 ], [ false, %127 ], [ false, %121 ], [ false, %115 ], [ false, %150 ], [ false, %144 ], [ false, %138 ]
  ret i1 %197
}